target datalayout = "e-m:e-p270:32:32-p271:32:32-p272:64:64-i64:64-i128:128-f80:128-n8:16:32:64-S128"
target triple = "x86_64-pc-linux-gnu"

%struct.MovChannelLayout = type { i64, i32 }

; Function Attrs: nounwind uwtable
define void @ff_mov_write_chan(ptr noundef %0, i64 noundef %1) #0 {
  %3 = alloca ptr, align 8
  %4 = alloca i64, align 8
  %5 = alloca ptr, align 8
  %6 = alloca i32, align 4
  store ptr %0, ptr %3, align 8, !tbaa !16
  store i64 %1, ptr %4, align 8, !tbaa !52
  call void @llvm.lifetime.start.p0(i64 8, ptr %5) #6
  call void @llvm.lifetime.start.p0(i64 4, ptr %6) #6
  store i32 0, ptr %6, align 4, !tbaa !9
  store ptr @mov_channel_layout, ptr %5, align 8, !tbaa !53
  br label %7

7:                                                ; preds = %23, %2
  %8 = load ptr, ptr %5, align 8, !tbaa !53
  %9 = getelementptr inbounds nuw %struct.MovChannelLayout, ptr %8, i32 0, i32 0
  %10 = load i64, ptr %9, align 8, !tbaa !55
  %11 = icmp ne i64 %10, 0
  br i1 %11, label %12, label %26

12:                                               ; preds = %7
  %13 = load i64, ptr %4, align 8, !tbaa !52
  %14 = load ptr, ptr %5, align 8, !tbaa !53
  %15 = getelementptr inbounds nuw %struct.MovChannelLayout, ptr %14, i32 0, i32 0
  %16 = load i64, ptr %15, align 8, !tbaa !55
  %17 = icmp eq i64 %13, %16
  br i1 %17, label %18, label %22

18:                                               ; preds = %12
  %19 = load ptr, ptr %5, align 8, !tbaa !53
  %20 = getelementptr inbounds nuw %struct.MovChannelLayout, ptr %19, i32 0, i32 1
  %21 = load i32, ptr %20, align 8, !tbaa !57
  store i32 %21, ptr %6, align 4, !tbaa !9
  br label %26

22:                                               ; preds = %12
  br label %23

23:                                               ; preds = %22
  %24 = load ptr, ptr %5, align 8, !tbaa !53
  %25 = getelementptr inbounds nuw %struct.MovChannelLayout, ptr %24, i32 1
  store ptr %25, ptr %5, align 8, !tbaa !53
  br label %7, !llvm.loop !58

26:                                               ; preds = %18, %7
  %27 = load i32, ptr %6, align 4, !tbaa !9
  %28 = icmp ne i32 %27, 0
  br i1 %28, label %29, label %33

29:                                               ; preds = %26
  %30 = load ptr, ptr %3, align 8, !tbaa !16
  %31 = load i32, ptr %6, align 4, !tbaa !9
  call void @avio_wb32(ptr noundef %30, i32 noundef %31)
  %32 = load ptr, ptr %3, align 8, !tbaa !16
  call void @avio_wb32(ptr noundef %32, i32 noundef 0)
  br label %38

33:                                               ; preds = %26
  %34 = load ptr, ptr %3, align 8, !tbaa !16
  call void @avio_wb32(ptr noundef %34, i32 noundef 65536)
  %35 = load ptr, ptr %3, align 8, !tbaa !16
  %36 = load i64, ptr %4, align 8, !tbaa !52
  %37 = trunc i64 %36 to i32
  call void @avio_wb32(ptr noundef %35, i32 noundef %37)
  br label %38

38:                                               ; preds = %33, %29
  %39 = load ptr, ptr %3, align 8, !tbaa !16
  call void @avio_wb32(ptr noundef %39, i32 noundef 0)
  call void @llvm.lifetime.end.p0(i64 4, ptr %6) #6
  call void @llvm.lifetime.end.p0(i64 8, ptr %5) #6
  ret void
}