; Function Attrs: nounwind uwtable
define void @ff_mov_write_chan(ptr noundef %0, i64 noundef %1) local_unnamed_addr #5 {
  br label %3

3:                                                ; preds = %2, %6
  %4 = phi i64 [ 4, %2 ], [ %8, %6 ]
  %.01218 = phi ptr [ @mov_channel_layout, %2 ], [ %7, %6 ]
  %5 = icmp eq i64 %1, %4
  br i1 %5, label %9, label %6

6:                                                ; preds = %3
  %7 = getelementptr inbounds nuw i8, ptr %.01218, i64 16
  %8 = load i64, ptr %7, align 8, !tbaa !42
  %.not = icmp eq i64 %8, 0
  br i1 %.not, label %.thread, label %3, !llvm.loop !44

9:                                                ; preds = %3
  %10 = getelementptr inbounds nuw i8, ptr %.01218, i64 8
  %11 = load i32, ptr %10, align 8, !tbaa !45
  %.not14 = icmp eq i32 %11, 0
  br i1 %.not14, label %.thread, label %12

12:                                               ; preds = %9
  tail call void @avio_wb32(ptr noundef %0, i32 noundef %11) #8
  br label %14

.thread:                                          ; preds = %6, %9
  tail call void @avio_wb32(ptr noundef %0, i32 noundef 65536) #8
  %13 = trunc i64 %1 to i32
  br label %14

14:                                               ; preds = %.thread, %12
  %.sink = phi i32 [ %13, %.thread ], [ 0, %12 ]
  tail call void @avio_wb32(ptr noundef %0, i32 noundef %.sink) #8
  tail call void @avio_wb32(ptr noundef %0, i32 noundef 0) #8
  ret void
}